; Function Attrs: nounwind uwtable
define dso_local void @jw_array_sub_jw(ptr noundef %0, ptr noundef %1) local_unnamed_addr #3 {
  %3 = getelementptr inbounds nuw i8, ptr %1, i64 32
  %4 = load i64, ptr %3, align 8, !tbaa !14
  %.not.i = icmp eq i64 %4, 0
  br i1 %.not.i, label %assert_is_terminated.exit, label %5

5:                                                ; preds = %2
  %6 = getelementptr inbounds nuw i8, ptr %1, i64 16
  %7 = load ptr, ptr %6, align 8, !tbaa !20
  tail call void (ptr, i32, ptr, ...) @BUG_fl(ptr noundef nonnull @.str.4, i32 noundef 149, ptr noundef nonnull @.str.18, ptr noundef %7) #9
  unreachable

assert_is_terminated.exit:                        ; preds = %2
  tail call fastcc void @array_common(ptr noundef %0)
  tail call fastcc void @append_sub_jw(ptr noundef %0, ptr noundef nonnull %1)
  ret void
}